target datalayout = "e-m:e-p270:32:32-p271:32:32-p272:64:64-i64:64-i128:128-f80:128-n8:16:32:64-S128"
target triple = "x86_64-pc-linux-gnu"

%struct.Fraig_ManStruct_t_ = type { ptr, ptr, ptr, ptr, ptr, ptr, ptr, ptr, ptr, i32, i32, i32, i32, i32, i32, i32, i32, i32, i32, i32, i32, i64, i32, i32, i32, i32, i32, ptr, ptr, ptr, ptr, ptr, i32, ptr, ptr, ptr, ptr, ptr, ptr, i32, ptr, ptr, ptr, ptr, i32, i32, i32, i32, i32, i32, i32, i32, i32, i32, i32, i32, i32, i32, i32, i32, i32, i32, i32, i64, i64, i64, i64, i64, i64, i64, i64, i64, i64, i64, i64 }
%struct.Fraig_NodeVecStruct_t_ = type { i32, i32, ptr }
%struct.Fraig_NodeStruct_t_ = type { i32, i32, i32, i32, i32, i32, i32, ptr, ptr, ptr, ptr, ptr, ptr, ptr, ptr, i32, i32, ptr, ptr, ptr, ptr, ptr, ptr, ptr }

; Function Attrs: nounwind uwtable
define ptr @Fraig_NodeCreateConst(ptr noundef %0) #0 {
  %2 = alloca ptr, align 8
  %3 = alloca ptr, align 8
  store ptr %0, ptr %2, align 8, !tbaa !3
  call void @llvm.lifetime.start.p0(i64 8, ptr %3) #6
  %4 = load ptr, ptr %2, align 8, !tbaa !3
  %5 = getelementptr inbounds nuw %struct.Fraig_ManStruct_t_, ptr %4, i32 0, i32 35
  %6 = load ptr, ptr %5, align 8, !tbaa !8
  %7 = call ptr @Fraig_MemFixedEntryFetch(ptr noundef %6)
  store ptr %7, ptr %3, align 8, !tbaa !22
  %8 = load ptr, ptr %3, align 8, !tbaa !22
  call void @llvm.memset.p0.i64(ptr align 8 %8, i8 0, i64 160, i1 false)
  %9 = load ptr, ptr %2, align 8, !tbaa !3
  %10 = getelementptr inbounds nuw %struct.Fraig_ManStruct_t_, ptr %9, i32 0, i32 1
  %11 = load ptr, ptr %10, align 8, !tbaa !23
  %12 = getelementptr inbounds nuw %struct.Fraig_NodeVecStruct_t_, ptr %11, i32 0, i32 1
  %13 = load i32, ptr %12, align 4, !tbaa !24
  %14 = load ptr, ptr %3, align 8, !tbaa !22
  %15 = getelementptr inbounds nuw %struct.Fraig_NodeStruct_t_, ptr %14, i32 0, i32 0
  store i32 %13, ptr %15, align 8, !tbaa !27
  %16 = load ptr, ptr %2, align 8, !tbaa !3
  %17 = getelementptr inbounds nuw %struct.Fraig_ManStruct_t_, ptr %16, i32 0, i32 1
  %18 = load ptr, ptr %17, align 8, !tbaa !23
  %19 = load ptr, ptr %3, align 8, !tbaa !22
  call void @Fraig_NodeVecPush(ptr noundef %18, ptr noundef %19)
  %20 = load ptr, ptr %3, align 8, !tbaa !22
  %21 = getelementptr inbounds nuw %struct.Fraig_NodeStruct_t_, ptr %20, i32 0, i32 1
  store i32 -1, ptr %21, align 4, !tbaa !29
  %22 = load ptr, ptr %3, align 8, !tbaa !22
  %23 = getelementptr inbounds nuw %struct.Fraig_NodeStruct_t_, ptr %22, i32 0, i32 2
  store i32 0, ptr %23, align 8, !tbaa !30
  %24 = load ptr, ptr %3, align 8, !tbaa !22
  %25 = getelementptr inbounds nuw %struct.Fraig_NodeStruct_t_, ptr %24, i32 0, i32 3
  store i32 1, ptr %25, align 4, !tbaa !31
  %26 = load ptr, ptr %3, align 8, !tbaa !22
  %27 = getelementptr inbounds nuw %struct.Fraig_NodeStruct_t_, ptr %26, i32 0, i32 6
  %28 = load i32, ptr %27, align 8
  %29 = and i32 %28, -2
  %30 = or i32 %29, 1
  store i32 %30, ptr %27, align 8
  %31 = load ptr, ptr %2, align 8, !tbaa !3
  %32 = getelementptr inbounds nuw %struct.Fraig_ManStruct_t_, ptr %31, i32 0, i32 36
  %33 = load ptr, ptr %32, align 8, !tbaa !32
  %34 = call ptr @Fraig_MemFixedEntryFetch(ptr noundef %33)
  %35 = load ptr, ptr %3, align 8, !tbaa !22
  %36 = getelementptr inbounds nuw %struct.Fraig_NodeStruct_t_, ptr %35, i32 0, i32 17
  store ptr %34, ptr %36, align 8, !tbaa !33
  %37 = load ptr, ptr %3, align 8, !tbaa !22
  %38 = getelementptr inbounds nuw %struct.Fraig_NodeStruct_t_, ptr %37, i32 0, i32 17
  %39 = load ptr, ptr %38, align 8, !tbaa !33
  %40 = load ptr, ptr %2, align 8, !tbaa !3
  %41 = getelementptr inbounds nuw %struct.Fraig_ManStruct_t_, ptr %40, i32 0, i32 9
  %42 = load i32, ptr %41, align 8, !tbaa !34
  %43 = sext i32 %42 to i64
  %44 = getelementptr inbounds i32, ptr %39, i64 %43
  %45 = load ptr, ptr %3, align 8, !tbaa !22
  %46 = getelementptr inbounds nuw %struct.Fraig_NodeStruct_t_, ptr %45, i32 0, i32 18
  store ptr %44, ptr %46, align 8, !tbaa !35
  %47 = load ptr, ptr %3, align 8, !tbaa !22
  %48 = getelementptr inbounds nuw %struct.Fraig_NodeStruct_t_, ptr %47, i32 0, i32 17
  %49 = load ptr, ptr %48, align 8, !tbaa !33
  %50 = load ptr, ptr %2, align 8, !tbaa !3
  %51 = getelementptr inbounds nuw %struct.Fraig_ManStruct_t_, ptr %50, i32 0, i32 9
  %52 = load i32, ptr %51, align 8, !tbaa !34
  %53 = sext i32 %52 to i64
  %54 = mul i64 4, %53
  call void @llvm.memset.p0.i64(ptr align 4 %49, i8 0, i64 %54, i1 false)
  %55 = load ptr, ptr %3, align 8, !tbaa !22
  %56 = getelementptr inbounds nuw %struct.Fraig_NodeStruct_t_, ptr %55, i32 0, i32 18
  %57 = load ptr, ptr %56, align 8, !tbaa !35
  %58 = load ptr, ptr %2, align 8, !tbaa !3
  %59 = getelementptr inbounds nuw %struct.Fraig_ManStruct_t_, ptr %58, i32 0, i32 10
  %60 = load i32, ptr %59, align 4, !tbaa !36
  %61 = sext i32 %60 to i64
  %62 = mul i64 4, %61
  call void @llvm.memset.p0.i64(ptr align 4 %57, i8 0, i64 %62, i1 false)
  %63 = load ptr, ptr %2, align 8, !tbaa !3
  %64 = getelementptr inbounds nuw %struct.Fraig_ManStruct_t_, ptr %63, i32 0, i32 9
  %65 = load i32, ptr %64, align 8, !tbaa !34
  %66 = sext i32 %65 to i64
  %67 = mul i64 %66, 4
  %68 = mul i64 %67, 8
  %69 = trunc i64 %68 to i32
  %70 = load ptr, ptr %3, align 8, !tbaa !22
  %71 = getelementptr inbounds nuw %struct.Fraig_NodeStruct_t_, ptr %70, i32 0, i32 6
  %72 = load i32, ptr %71, align 8
  %73 = and i32 %69, 1048575
  %74 = shl i32 %73, 12
  %75 = and i32 %72, 4095
  %76 = or i32 %75, %74
  store i32 %76, ptr %71, align 8
  %77 = load ptr, ptr %2, align 8, !tbaa !3
  %78 = load ptr, ptr %3, align 8, !tbaa !22
  %79 = call ptr @Fraig_HashTableLookupF0(ptr noundef %77, ptr noundef %78)
  %80 = load ptr, ptr %3, align 8, !tbaa !22
  call void @llvm.lifetime.end.p0(i64 8, ptr %3) #6
  ret ptr %80
}