; Function Attrs: nounwind uwtable
define noundef ptr @Fraig_NodeCreateConst(ptr noundef %0) local_unnamed_addr #0 {
  %2 = getelementptr inbounds nuw i8, ptr %0, i64 216
  %3 = load ptr, ptr %2, align 8, !tbaa !3
  %4 = tail call ptr @Fraig_MemFixedEntryFetch(ptr noundef %3) #7
  tail call void @llvm.memset.p0.i64(ptr noundef nonnull align 8 dereferenceable(160) %4, i8 0, i64 160, i1 false)
  %5 = getelementptr inbounds nuw i8, ptr %0, i64 8
  %6 = load ptr, ptr %5, align 8, !tbaa !20
  %7 = getelementptr inbounds nuw i8, ptr %6, i64 4
  %8 = load i32, ptr %7, align 4, !tbaa !21
  store i32 %8, ptr %4, align 8, !tbaa !24
  tail call void @Fraig_NodeVecPush(ptr noundef %6, ptr noundef nonnull %4) #7
  %9 = getelementptr inbounds nuw i8, ptr %4, i64 4
  store i32 -1, ptr %9, align 4, !tbaa !26
  %10 = getelementptr inbounds nuw i8, ptr %4, i64 8
  store i32 0, ptr %10, align 8, !tbaa !27
  %11 = getelementptr inbounds nuw i8, ptr %4, i64 12
  store i32 1, ptr %11, align 4, !tbaa !28
  %12 = getelementptr inbounds nuw i8, ptr %4, i64 24
  %13 = load i32, ptr %12, align 8
  %14 = or i32 %13, 1
  store i32 %14, ptr %12, align 8
  %15 = getelementptr inbounds nuw i8, ptr %0, i64 224
  %16 = load ptr, ptr %15, align 8, !tbaa !29
  %17 = tail call ptr @Fraig_MemFixedEntryFetch(ptr noundef %16) #7
  %18 = getelementptr inbounds nuw i8, ptr %4, i64 104
  store ptr %17, ptr %18, align 8, !tbaa !30
  %19 = getelementptr inbounds nuw i8, ptr %0, i64 72
  %20 = load i32, ptr %19, align 8, !tbaa !31
  %21 = sext i32 %20 to i64
  %22 = getelementptr inbounds i32, ptr %17, i64 %21
  %23 = getelementptr inbounds nuw i8, ptr %4, i64 112
  store ptr %22, ptr %23, align 8, !tbaa !32
  %24 = shl nsw i64 %21, 2
  tail call void @llvm.memset.p0.i64(ptr align 4 %17, i8 0, i64 %24, i1 false)
  %25 = load ptr, ptr %23, align 8, !tbaa !32
  %26 = getelementptr inbounds nuw i8, ptr %0, i64 76
  %27 = load i32, ptr %26, align 4, !tbaa !33
  %28 = sext i32 %27 to i64
  %29 = shl nsw i64 %28, 2
  tail call void @llvm.memset.p0.i64(ptr align 4 %25, i8 0, i64 %29, i1 false)
  %30 = load i32, ptr %19, align 8, !tbaa !31
  %31 = shl i32 %30, 17
  %32 = load i32, ptr %12, align 8
  %33 = and i32 %32, 4095
  %34 = or disjoint i32 %33, %31
  store i32 %34, ptr %12, align 8
  %35 = tail call ptr @Fraig_HashTableLookupF0(ptr noundef %0, ptr noundef nonnull %4) #7
  ret ptr %4
}